target datalayout = "e-m:e-p270:32:32-p271:32:32-p272:64:64-i64:64-i128:128-f80:128-n8:16:32:64-S128"
target triple = "x86_64-pc-linux-gnu"

@keysym_to_unicode_13bc_13be = internal constant [3 x i16] [i16 338, i16 339, i16 376], align 2
@keysym_to_unicode_20a0_20ac = internal constant [13 x i16] [i16 8352, i16 8353, i16 8354, i16 8355, i16 8356, i16 8357, i16 8358, i16 8359, i16 8360, i16 8361, i16 8362, i16 8363, i16 8364], align 16

; Function Attrs: nounwind uwtable
define hidden i32 @SDL_KeySymToUcs4(i32 noundef %0) #0 {
  %2 = alloca i32, align 4
  %3 = alloca i32, align 4
  store i32 %0, ptr %3, align 4
  %4 = load i32, ptr %3, align 4
  %5 = and i32 %4, -16777216
  %6 = icmp eq i32 %5, 16777216
  br i1 %6, label %7, label %10

7:                                                ; preds = %1
  %8 = load i32, ptr %3, align 4
  %9 = and i32 %8, 16777215
  store i32 %9, ptr %2, align 4
  br label %279

10:                                               ; preds = %1
  %11 = load i32, ptr %3, align 4
  %12 = icmp ugt i32 %11, 0
  br i1 %12, label %13, label %18

13:                                               ; preds = %10
  %14 = load i32, ptr %3, align 4
  %15 = icmp ult i32 %14, 256
  br i1 %15, label %16, label %18

16:                                               ; preds = %13
  %17 = load i32, ptr %3, align 4
  store i32 %17, ptr %2, align 4
  br label %279

18:                                               ; preds = %13, %10
  %19 = load i32, ptr %3, align 4
  %20 = icmp ugt i32 %19, 416
  br i1 %20, label %21, label %31

21:                                               ; preds = %18
  %22 = load i32, ptr %3, align 4
  %23 = icmp ult i32 %22, 512
  br i1 %23, label %24, label %31

24:                                               ; preds = %21
  %25 = load i32, ptr %3, align 4
  %26 = sub i32 %25, 417
  %27 = zext i32 %26 to i64
  %28 = getelementptr inbounds nuw [95 x i16], ptr @keysym_to_unicode_1a1_1ff, i64 0, i64 %27
  %29 = load i16, ptr %28, align 2
  %30 = zext i16 %29 to i32
  store i32 %30, ptr %2, align 4
  br label %279

31:                                               ; preds = %21, %18
  %32 = load i32, ptr %3, align 4
  %33 = icmp ugt i32 %32, 672
  br i1 %33, label %34, label %44

34:                                               ; preds = %31
  %35 = load i32, ptr %3, align 4
  %36 = icmp ult i32 %35, 767
  br i1 %36, label %37, label %44

37:                                               ; preds = %34
  %38 = load i32, ptr %3, align 4
  %39 = sub i32 %38, 673
  %40 = zext i32 %39 to i64
  %41 = getelementptr inbounds nuw [94 x i16], ptr @keysym_to_unicode_2a1_2fe, i64 0, i64 %40
  %42 = load i16, ptr %41, align 2
  %43 = zext i16 %42 to i32
  store i32 %43, ptr %2, align 4
  br label %279

44:                                               ; preds = %34, %31
  %45 = load i32, ptr %3, align 4
  %46 = icmp ugt i32 %45, 929
  br i1 %46, label %47, label %57

47:                                               ; preds = %44
  %48 = load i32, ptr %3, align 4
  %49 = icmp ult i32 %48, 1023
  br i1 %49, label %50, label %57

50:                                               ; preds = %47
  %51 = load i32, ptr %3, align 4
  %52 = sub i32 %51, 930
  %53 = zext i32 %52 to i64
  %54 = getelementptr inbounds nuw [93 x i16], ptr @keysym_to_unicode_3a2_3fe, i64 0, i64 %53
  %55 = load i16, ptr %54, align 2
  %56 = zext i16 %55 to i32
  store i32 %56, ptr %2, align 4
  br label %279

57:                                               ; preds = %47, %44
  %58 = load i32, ptr %3, align 4
  %59 = icmp ugt i32 %58, 1184
  br i1 %59, label %60, label %70

60:                                               ; preds = %57
  %61 = load i32, ptr %3, align 4
  %62 = icmp ult i32 %61, 1248
  br i1 %62, label %63, label %70

63:                                               ; preds = %60
  %64 = load i32, ptr %3, align 4
  %65 = sub i32 %64, 1185
  %66 = zext i32 %65 to i64
  %67 = getelementptr inbounds nuw [63 x i16], ptr @keysym_to_unicode_4a1_4df, i64 0, i64 %66
  %68 = load i16, ptr %67, align 2
  %69 = zext i16 %68 to i32
  store i32 %69, ptr %2, align 4
  br label %279

70:                                               ; preds = %60, %57
  %71 = load i32, ptr %3, align 4
  %72 = icmp ugt i32 %71, 1417
  br i1 %72, label %73, label %83

73:                                               ; preds = %70
  %74 = load i32, ptr %3, align 4
  %75 = icmp ult i32 %74, 1535
  br i1 %75, label %76, label %83

76:                                               ; preds = %73
  %77 = load i32, ptr %3, align 4
  %78 = sub i32 %77, 1424
  %79 = zext i32 %78 to i64
  %80 = getelementptr inbounds nuw [111 x i16], ptr @keysym_to_unicode_590_5fe, i64 0, i64 %79
  %81 = load i16, ptr %80, align 2
  %82 = zext i16 %81 to i32
  store i32 %82, ptr %2, align 4
  br label %279

83:                                               ; preds = %73, %70
  %84 = load i32, ptr %3, align 4
  %85 = icmp ugt i32 %84, 1663
  br i1 %85, label %86, label %96

86:                                               ; preds = %83
  %87 = load i32, ptr %3, align 4
  %88 = icmp ult i32 %87, 1792
  br i1 %88, label %89, label %96

89:                                               ; preds = %86
  %90 = load i32, ptr %3, align 4
  %91 = sub i32 %90, 1664
  %92 = zext i32 %91 to i64
  %93 = getelementptr inbounds nuw [128 x i16], ptr @keysym_to_unicode_680_6ff, i64 0, i64 %92
  %94 = load i16, ptr %93, align 2
  %95 = zext i16 %94 to i32
  store i32 %95, ptr %2, align 4
  br label %279

96:                                               ; preds = %86, %83
  %97 = load i32, ptr %3, align 4
  %98 = icmp ugt i32 %97, 1952
  br i1 %98, label %99, label %109

99:                                               ; preds = %96
  %100 = load i32, ptr %3, align 4
  %101 = icmp ult i32 %100, 2042
  br i1 %101, label %102, label %109

102:                                              ; preds = %99
  %103 = load i32, ptr %3, align 4
  %104 = sub i32 %103, 1953
  %105 = zext i32 %104 to i64
  %106 = getelementptr inbounds nuw [89 x i16], ptr @keysym_to_unicode_7a1_7f9, i64 0, i64 %105
  %107 = load i16, ptr %106, align 2
  %108 = zext i16 %107 to i32
  store i32 %108, ptr %2, align 4
  br label %279

109:                                              ; preds = %99, %96
  %110 = load i32, ptr %3, align 4
  %111 = icmp ugt i32 %110, 2211
  br i1 %111, label %112, label %122

112:                                              ; preds = %109
  %113 = load i32, ptr %3, align 4
  %114 = icmp ult i32 %113, 2303
  br i1 %114, label %115, label %122

115:                                              ; preds = %112
  %116 = load i32, ptr %3, align 4
  %117 = sub i32 %116, 2212
  %118 = zext i32 %117 to i64
  %119 = getelementptr inbounds nuw [91 x i16], ptr @keysym_to_unicode_8a4_8fe, i64 0, i64 %118
  %120 = load i16, ptr %119, align 2
  %121 = zext i16 %120 to i32
  store i32 %121, ptr %2, align 4
  br label %279

122:                                              ; preds = %112, %109
  %123 = load i32, ptr %3, align 4
  %124 = icmp ugt i32 %123, 2526
  br i1 %124, label %125, label %135

125:                                              ; preds = %122
  %126 = load i32, ptr %3, align 4
  %127 = icmp ult i32 %126, 2553
  br i1 %127, label %128, label %135

128:                                              ; preds = %125
  %129 = load i32, ptr %3, align 4
  %130 = sub i32 %129, 2527
  %131 = zext i32 %130 to i64
  %132 = getelementptr inbounds nuw [26 x i16], ptr @keysym_to_unicode_9df_9f8, i64 0, i64 %131
  %133 = load i16, ptr %132, align 2
  %134 = zext i16 %133 to i32
  store i32 %134, ptr %2, align 4
  br label %279

135:                                              ; preds = %125, %122
  %136 = load i32, ptr %3, align 4
  %137 = icmp ugt i32 %136, 2720
  br i1 %137, label %138, label %148

138:                                              ; preds = %135
  %139 = load i32, ptr %3, align 4
  %140 = icmp ult i32 %139, 2815
  br i1 %140, label %141, label %148

141:                                              ; preds = %138
  %142 = load i32, ptr %3, align 4
  %143 = sub i32 %142, 2721
  %144 = zext i32 %143 to i64
  %145 = getelementptr inbounds nuw [94 x i16], ptr @keysym_to_unicode_aa1_afe, i64 0, i64 %144
  %146 = load i16, ptr %145, align 2
  %147 = zext i16 %146 to i32
  store i32 %147, ptr %2, align 4
  br label %279

148:                                              ; preds = %138, %135
  %149 = load i32, ptr %3, align 4
  %150 = icmp ugt i32 %149, 3294
  br i1 %150, label %151, label %161

151:                                              ; preds = %148
  %152 = load i32, ptr %3, align 4
  %153 = icmp ult i32 %152, 3323
  br i1 %153, label %154, label %161

154:                                              ; preds = %151
  %155 = load i32, ptr %3, align 4
  %156 = sub i32 %155, 3295
  %157 = zext i32 %156 to i64
  %158 = getelementptr inbounds nuw [28 x i16], ptr @keysym_to_unicode_cdf_cfa, i64 0, i64 %157
  %159 = load i16, ptr %158, align 2
  %160 = zext i16 %159 to i32
  store i32 %160, ptr %2, align 4
  br label %279

161:                                              ; preds = %151, %148
  %162 = load i32, ptr %3, align 4
  %163 = icmp ugt i32 %162, 3488
  br i1 %163, label %164, label %174

164:                                              ; preds = %161
  %165 = load i32, ptr %3, align 4
  %166 = icmp ult i32 %165, 3578
  br i1 %166, label %167, label %174

167:                                              ; preds = %164
  %168 = load i32, ptr %3, align 4
  %169 = sub i32 %168, 3489
  %170 = zext i32 %169 to i64
  %171 = getelementptr inbounds nuw [89 x i16], ptr @keysym_to_unicode_da1_df9, i64 0, i64 %170
  %172 = load i16, ptr %171, align 2
  %173 = zext i16 %172 to i32
  store i32 %173, ptr %2, align 4
  br label %279

174:                                              ; preds = %164, %161
  %175 = load i32, ptr %3, align 4
  %176 = icmp ugt i32 %175, 3743
  br i1 %176, label %177, label %187

177:                                              ; preds = %174
  %178 = load i32, ptr %3, align 4
  %179 = icmp ult i32 %178, 3840
  br i1 %179, label %180, label %187

180:                                              ; preds = %177
  %181 = load i32, ptr %3, align 4
  %182 = sub i32 %181, 3744
  %183 = zext i32 %182 to i64
  %184 = getelementptr inbounds nuw [96 x i16], ptr @keysym_to_unicode_ea0_eff, i64 0, i64 %183
  %185 = load i16, ptr %184, align 2
  %186 = zext i16 %185 to i32
  store i32 %186, ptr %2, align 4
  br label %279

187:                                              ; preds = %177, %174
  %188 = load i32, ptr %3, align 4
  %189 = icmp ugt i32 %188, 4768
  br i1 %189, label %190, label %200

190:                                              ; preds = %187
  %191 = load i32, ptr %3, align 4
  %192 = icmp ult i32 %191, 4863
  br i1 %192, label %193, label %200

193:                                              ; preds = %190
  %194 = load i32, ptr %3, align 4
  %195 = sub i32 %194, 4769
  %196 = zext i32 %195 to i64
  %197 = getelementptr inbounds nuw [94 x i16], ptr @keysym_to_unicode_12a1_12fe, i64 0, i64 %196
  %198 = load i16, ptr %197, align 2
  %199 = zext i16 %198 to i32
  store i32 %199, ptr %2, align 4
  br label %279

200:                                              ; preds = %190, %187
  %201 = load i32, ptr %3, align 4
  %202 = icmp ugt i32 %201, 5051
  br i1 %202, label %203, label %213

203:                                              ; preds = %200
  %204 = load i32, ptr %3, align 4
  %205 = icmp ult i32 %204, 5055
  br i1 %205, label %206, label %213

206:                                              ; preds = %203
  %207 = load i32, ptr %3, align 4
  %208 = sub i32 %207, 5052
  %209 = zext i32 %208 to i64
  %210 = getelementptr inbounds nuw [3 x i16], ptr @keysym_to_unicode_13bc_13be, i64 0, i64 %209
  %211 = load i16, ptr %210, align 2
  %212 = zext i16 %211 to i32
  store i32 %212, ptr %2, align 4
  br label %279

213:                                              ; preds = %203, %200
  %214 = load i32, ptr %3, align 4
  %215 = icmp ugt i32 %214, 5280
  br i1 %215, label %216, label %226

216:                                              ; preds = %213
  %217 = load i32, ptr %3, align 4
  %218 = icmp ult i32 %217, 5376
  br i1 %218, label %219, label %226

219:                                              ; preds = %216
  %220 = load i32, ptr %3, align 4
  %221 = sub i32 %220, 5281
  %222 = zext i32 %221 to i64
  %223 = getelementptr inbounds nuw [95 x i16], ptr @keysym_to_unicode_14a1_14ff, i64 0, i64 %222
  %224 = load i16, ptr %223, align 2
  %225 = zext i16 %224 to i32
  store i32 %225, ptr %2, align 4
  br label %279

226:                                              ; preds = %216, %213
  %227 = load i32, ptr %3, align 4
  %228 = icmp ugt i32 %227, 5583
  br i1 %228, label %229, label %239

229:                                              ; preds = %226
  %230 = load i32, ptr %3, align 4
  %231 = icmp ult i32 %230, 5623
  br i1 %231, label %232, label %239

232:                                              ; preds = %229
  %233 = load i32, ptr %3, align 4
  %234 = sub i32 %233, 5584
  %235 = zext i32 %234 to i64
  %236 = getelementptr inbounds nuw [39 x i16], ptr @keysym_to_unicode_15d0_15f6, i64 0, i64 %235
  %237 = load i16, ptr %236, align 2
  %238 = zext i16 %237 to i32
  store i32 %238, ptr %2, align 4
  br label %279

239:                                              ; preds = %229, %226
  %240 = load i32, ptr %3, align 4
  %241 = icmp ugt i32 %240, 5791
  br i1 %241, label %242, label %252

242:                                              ; preds = %239
  %243 = load i32, ptr %3, align 4
  %244 = icmp ult i32 %243, 5879
  br i1 %244, label %245, label %252

245:                                              ; preds = %242
  %246 = load i32, ptr %3, align 4
  %247 = sub i32 %246, 5792
  %248 = zext i32 %247 to i64
  %249 = getelementptr inbounds nuw [87 x i16], ptr @keysym_to_unicode_16a0_16f6, i64 0, i64 %248
  %250 = load i16, ptr %249, align 2
  %251 = zext i16 %250 to i32
  store i32 %251, ptr %2, align 4
  br label %279

252:                                              ; preds = %242, %239
  %253 = load i32, ptr %3, align 4
  %254 = icmp ugt i32 %253, 7838
  br i1 %254, label %255, label %265

255:                                              ; preds = %252
  %256 = load i32, ptr %3, align 4
  %257 = icmp ult i32 %256, 7936
  br i1 %257, label %258, label %265

258:                                              ; preds = %255
  %259 = load i32, ptr %3, align 4
  %260 = sub i32 %259, 7839
  %261 = zext i32 %260 to i64
  %262 = getelementptr inbounds nuw [97 x i16], ptr @keysym_to_unicode_1e9f_1eff, i64 0, i64 %261
  %263 = load i16, ptr %262, align 2
  %264 = zext i16 %263 to i32
  store i32 %264, ptr %2, align 4
  br label %279

265:                                              ; preds = %255, %252
  %266 = load i32, ptr %3, align 4
  %267 = icmp ugt i32 %266, 8351
  br i1 %267, label %268, label %278

268:                                              ; preds = %265
  %269 = load i32, ptr %3, align 4
  %270 = icmp ult i32 %269, 8365
  br i1 %270, label %271, label %278

271:                                              ; preds = %268
  %272 = load i32, ptr %3, align 4
  %273 = sub i32 %272, 8352
  %274 = zext i32 %273 to i64
  %275 = getelementptr inbounds nuw [13 x i16], ptr @keysym_to_unicode_20a0_20ac, i64 0, i64 %274
  %276 = load i16, ptr %275, align 2
  %277 = zext i16 %276 to i32
  store i32 %277, ptr %2, align 4
  br label %279

278:                                              ; preds = %268, %265
  store i32 0, ptr %2, align 4
  br label %279

279:                                              ; preds = %278, %271, %258, %245, %232, %219, %206, %193, %180, %167, %154, %141, %128, %115, %102, %89, %76, %63, %50, %37, %24, %16, %7
  %280 = load i32, ptr %2, align 4
  ret i32 %280
}